; ModuleID = '35/1693.c'
source_filename = "35/1693.c"
target datalayout = "e-m:e-p270:32:32-p271:32:32-p272:64:64-i64:64-f80:128-n8:16:32:64-S128"
target triple = "x86_64-pc-linux-gnu"

@.str = private unnamed_addr constant [6 x i8] c"%d,%d\00", align 1
@.str.1 = private unnamed_addr constant [5 x i8] c"%d\0A \00", align 1
@.str.2 = private unnamed_addr constant [6 x i8] c"%d+%d\00", align 1
@.str.3 = private unnamed_addr constant [3 x i8] c"No\00", align 1

; Function Attrs: noinline nounwind uwtable
define dso_local i32 @main() #0 {
  %1 = alloca i32, align 4
  %2 = alloca [8 x [8 x i32]], align 16
  %3 = alloca i32, align 4
  %4 = alloca i32, align 4
  %5 = alloca i32, align 4
  %6 = alloca i32, align 4
  %7 = alloca i32, align 4
  %8 = alloca i32, align 4
  %9 = alloca i32, align 4
  %10 = alloca i32, align 4
  store i32 0, i32* %1, align 4
  %11 = call i32 (i8*, ...) @__isoc99_scanf(i8* getelementptr inbounds ([6 x i8], [6 x i8]* @.str, i64 0, i64 0), i32* %3, i32* %4)
  store i32 0, i32* %7, align 4
  store i32 0, i32* %8, align 4
  store i32 0, i32* %9, align 4
  store i32 0, i32* %10, align 4
  store i32 0, i32* %5, align 4
  br label %12

12:                                               ; preds = %33, %0
  %13 = load i32, i32* %5, align 4
  %14 = load i32, i32* %3, align 4
  %15 = icmp slt i32 %13, %14
  br i1 %15, label %16, label %36

16:                                               ; preds = %12
  store i32 0, i32* %6, align 4
  br label %17

17:                                               ; preds = %29, %16
  %18 = load i32, i32* %6, align 4
  %19 = load i32, i32* %4, align 4
  %20 = icmp slt i32 %18, %19
  br i1 %20, label %21, label %32

21:                                               ; preds = %17
  %22 = load i32, i32* %5, align 4
  %23 = sext i32 %22 to i64
  %24 = getelementptr inbounds [8 x [8 x i32]], [8 x [8 x i32]]* %2, i64 0, i64 %23
  %25 = load i32, i32* %6, align 4
  %26 = sext i32 %25 to i64
  %27 = getelementptr inbounds [8 x i32], [8 x i32]* %24, i64 0, i64 %26
  %28 = call i32 (i8*, ...) @__isoc99_scanf(i8* getelementptr inbounds ([5 x i8], [5 x i8]* @.str.1, i64 0, i64 0), i32* %27)
  br label %29

29:                                               ; preds = %21
  %30 = load i32, i32* %6, align 4
  %31 = add nsw i32 %30, 1
  store i32 %31, i32* %6, align 4
  br label %17

32:                                               ; preds = %17
  br label %33

33:                                               ; preds = %32
  %34 = load i32, i32* %5, align 4
  %35 = add nsw i32 %34, 1
  store i32 %35, i32* %5, align 4
  br label %12

36:                                               ; preds = %12
  store i32 0, i32* %5, align 4
  br label %37

37:                                               ; preds = %105, %36
  %38 = load i32, i32* %5, align 4
  %39 = load i32, i32* %3, align 4
  %40 = icmp slt i32 %38, %39
  br i1 %40, label %41, label %108

41:                                               ; preds = %37
  store i32 0, i32* %6, align 4
  br label %42

42:                                               ; preds = %66, %41
  %43 = load i32, i32* %6, align 4
  %44 = load i32, i32* %4, align 4
  %45 = icmp slt i32 %43, %44
  br i1 %45, label %46, label %69

46:                                               ; preds = %42
  %47 = load i32, i32* %5, align 4
  %48 = sext i32 %47 to i64
  %49 = getelementptr inbounds [8 x [8 x i32]], [8 x [8 x i32]]* %2, i64 0, i64 %48
  %50 = load i32, i32* %6, align 4
  %51 = sext i32 %50 to i64
  %52 = getelementptr inbounds [8 x i32], [8 x i32]* %49, i64 0, i64 %51
  %53 = load i32, i32* %52, align 4
  %54 = load i32, i32* %5, align 4
  %55 = sext i32 %54 to i64
  %56 = getelementptr inbounds [8 x [8 x i32]], [8 x [8 x i32]]* %2, i64 0, i64 %55
  %57 = load i32, i32* %7, align 4
  %58 = sext i32 %57 to i64
  %59 = getelementptr inbounds [8 x i32], [8 x i32]* %56, i64 0, i64 %58
  %60 = load i32, i32* %59, align 4
  %61 = icmp sgt i32 %53, %60
  br i1 %61, label %62, label %65

62:                                               ; preds = %46
  %63 = load i32, i32* %6, align 4
  store i32 %63, i32* %7, align 4
  %64 = load i32, i32* %5, align 4
  store i32 %64, i32* %8, align 4
  br label %65

65:                                               ; preds = %62, %46
  br label %66

66:                                               ; preds = %65
  %67 = load i32, i32* %6, align 4
  %68 = add nsw i32 %67, 1
  store i32 %68, i32* %6, align 4
  br label %42

69:                                               ; preds = %42
  store i32 0, i32* %5, align 4
  br label %70

70:                                               ; preds = %93, %69
  %71 = load i32, i32* %5, align 4
  %72 = load i32, i32* %3, align 4
  %73 = icmp slt i32 %71, %72
  br i1 %73, label %74, label %96

74:                                               ; preds = %70
  %75 = load i32, i32* %5, align 4
  %76 = sext i32 %75 to i64
  %77 = getelementptr inbounds [8 x [8 x i32]], [8 x [8 x i32]]* %2, i64 0, i64 %76
  %78 = load i32, i32* %7, align 4
  %79 = sext i32 %78 to i64
  %80 = getelementptr inbounds [8 x i32], [8 x i32]* %77, i64 0, i64 %79
  %81 = load i32, i32* %80, align 4
  %82 = load i32, i32* %9, align 4
  %83 = sext i32 %82 to i64
  %84 = getelementptr inbounds [8 x [8 x i32]], [8 x [8 x i32]]* %2, i64 0, i64 %83
  %85 = load i32, i32* %7, align 4
  %86 = sext i32 %85 to i64
  %87 = getelementptr inbounds [8 x i32], [8 x i32]* %84, i64 0, i64 %86
  %88 = load i32, i32* %87, align 4
  %89 = icmp slt i32 %81, %88
  br i1 %89, label %90, label %92

90:                                               ; preds = %74
  %91 = load i32, i32* %5, align 4
  store i32 %91, i32* %9, align 4
  br label %92

92:                                               ; preds = %90, %74
  br label %93

93:                                               ; preds = %92
  %94 = load i32, i32* %5, align 4
  %95 = add nsw i32 %94, 1
  store i32 %95, i32* %5, align 4
  br label %70

96:                                               ; preds = %70
  %97 = load i32, i32* %9, align 4
  %98 = load i32, i32* %8, align 4
  %99 = icmp eq i32 %97, %98
  br i1 %99, label %100, label %104

100:                                              ; preds = %96
  %101 = load i32, i32* %8, align 4
  %102 = load i32, i32* %7, align 4
  %103 = call i32 (i8*, ...) @printf(i8* getelementptr inbounds ([6 x i8], [6 x i8]* @.str.2, i64 0, i64 0), i32 %101, i32 %102)
  store i32 1, i32* %10, align 4
  br label %104

104:                                              ; preds = %100, %96
  br label %105

105:                                              ; preds = %104
  %106 = load i32, i32* %5, align 4
  %107 = add nsw i32 %106, 1
  store i32 %107, i32* %5, align 4
  br label %37

108:                                              ; preds = %37
  %109 = load i32, i32* %10, align 4
  %110 = icmp eq i32 %109, 0
  br i1 %110, label %111, label %113

111:                                              ; preds = %108
  %112 = call i32 (i8*, ...) @printf(i8* getelementptr inbounds ([3 x i8], [3 x i8]* @.str.3, i64 0, i64 0))
  br label %113

113:                                              ; preds = %111, %108
  ret i32 0
}

declare dso_local i32 @__isoc99_scanf(i8*, ...) #1

declare dso_local i32 @printf(i8*, ...) #1


!llvm.module.flags = !{!0}
!llvm.ident = !{!1}

!0 = !{i32 1, !"wchar_size", i32 4}
!1 = !{!"clang version 10.0.0-4ubuntu1 "}
